; Function Attrs: mustprogress uwtable
define dso_local void @_ZN31btMultiBodyJointLimitConstraintC2EP11btMultiBodyiff(ptr noundef nonnull align 8 dereferenceable(104) %0, ptr noundef %1, i32 noundef %2, float noundef %3, float noundef %4) unnamed_addr #0 align 2 {
  %6 = getelementptr inbounds nuw i8, ptr %1, i64 192
  %7 = load ptr, ptr %6, align 8, !tbaa !4
  %8 = sext i32 %2 to i64
  %9 = getelementptr inbounds %struct.btMultibodyLink, ptr %7, i64 %8, i32 2
  %10 = load i32, ptr %9, align 4, !tbaa !13
  tail call void @_ZN21btMultiBodyConstraintC2EP11btMultiBodyS1_iiibi(ptr noundef nonnull align 8 dereferenceable(96) %0, ptr noundef nonnull %1, ptr noundef nonnull %1, i32 noundef %2, i32 noundef %10, i32 noundef 2, i1 noundef zeroext true, i32 noundef 3)
  store ptr getelementptr inbounds nuw inrange(-16, 104) (i8, ptr @_ZTV31btMultiBodyJointLimitConstraint, i64 16), ptr %0, align 8, !tbaa !26
  %11 = getelementptr inbounds nuw i8, ptr %0, i64 96
  store float %3, ptr %11, align 8, !tbaa !28
  %12 = getelementptr inbounds nuw i8, ptr %0, i64 100
  store float %4, ptr %12, align 4, !tbaa !35
  ret void
}